target datalayout = "e-m:e-p270:32:32-p271:32:32-p272:64:64-i64:64-i128:128-f80:128-n8:16:32:64-S128"
target triple = "x86_64-pc-linux-gnu"

%class.stack = type { ptr, ptr, ptr, ptr }

; Function Attrs: inlinehint mustprogress nounwind uwtable
define linkonce_odr hidden noundef zeroext i1 @_Z12external_ptrm(i64 noundef %0) #9 comdat {
  %2 = alloca i64, align 8
  store i64 %0, ptr %2, align 8, !tbaa !14
  %3 = load i64, ptr %2, align 8, !tbaa !14
  %4 = and i64 %3, 1
  %5 = icmp ne i64 %4, 0
  ret i1 %5
}

; Function Attrs: inlinehint mustprogress nounwind uwtable
define linkonce_odr hidden noundef ptr @_Z8mark2ptrm(i64 noundef %0) #9 comdat {
  %2 = alloca i64, align 8
  store i64 %0, ptr %2, align 8, !tbaa !14
  %3 = load i64, ptr %2, align 8, !tbaa !14
  %4 = and i64 %3, -2
  %5 = inttoptr i64 %4 to ptr
  ret ptr %5
}

; Function Attrs: inlinehint mustprogress nounwind uwtable
define linkonce_odr hidden noundef i64 @_ZNK5stack8top_markEv(ptr noundef nonnull align 8 dereferenceable(32) %0) #9 comdat align 2 {
  %2 = alloca ptr, align 8
  store ptr %0, ptr %2, align 8, !tbaa !3
  %3 = load ptr, ptr %2, align 8
  %4 = getelementptr inbounds nuw %class.stack, ptr %3, i32 0, i32 1
  %5 = load ptr, ptr %4, align 8, !tbaa !11
  %6 = getelementptr inbounds i64, ptr %5, i64 -1
  %7 = load i64, ptr %6, align 8, !tbaa !14
  ret i64 %7
}

; Function Attrs: mustprogress uwtable
define hidden noundef ptr @_ZNK5stack3topEv(ptr noundef nonnull align 8 dereferenceable(32) %0) #4 align 2 {
  %2 = alloca ptr, align 8
  %3 = alloca i64, align 8
  %4 = alloca ptr, align 8
  store ptr %0, ptr %2, align 8, !tbaa !3
  %5 = load ptr, ptr %2, align 8
  call void @llvm.lifetime.start.p0(i64 8, ptr %3) #3
  %6 = call noundef i64 @_ZNK5stack8top_markEv(ptr noundef nonnull align 8 dereferenceable(32) %5)
  store i64 %6, ptr %3, align 8, !tbaa !14
  call void @llvm.lifetime.start.p0(i64 8, ptr %4) #3
  %7 = load i64, ptr %3, align 8, !tbaa !14
  %8 = call noundef ptr @_Z8mark2ptrm(i64 noundef %7)
  store ptr %8, ptr %4, align 8, !tbaa !19
  %9 = load i64, ptr %3, align 8, !tbaa !14
  %10 = call noundef zeroext i1 @_Z12external_ptrm(i64 noundef %9)
  br i1 %10, label %11, label %15

11:                                               ; preds = %1
  %12 = load ptr, ptr %4, align 8, !tbaa !19
  %13 = getelementptr inbounds ptr, ptr %12, i64 0
  %14 = load ptr, ptr %13, align 8, !tbaa !19
  store ptr %14, ptr %4, align 8, !tbaa !19
  br label %15

15:                                               ; preds = %11, %1
  %16 = load ptr, ptr %4, align 8, !tbaa !19
  call void @llvm.lifetime.end.p0(i64 8, ptr %4) #3
  call void @llvm.lifetime.end.p0(i64 8, ptr %3) #3
  ret ptr %16
}