; Function Attrs: mustprogress nofree norecurse nosync nounwind willreturn memory(read, inaccessiblemem: none) uwtable
define hidden noundef ptr @_ZNK5stack3topEv(ptr noundef nonnull readonly align 8 captures(none) dereferenceable(32) %0) local_unnamed_addr #7 align 2 {
  %2 = getelementptr inbounds nuw i8, ptr %0, i64 8
  %3 = load ptr, ptr %2, align 8, !tbaa !12
  %4 = getelementptr inbounds i8, ptr %3, i64 -8
  %5 = load i64, ptr %4, align 8, !tbaa !10
  %6 = and i64 %5, -2
  %7 = inttoptr i64 %6 to ptr
  %8 = and i64 %5, 1
  %.not = icmp eq i64 %8, 0
  br i1 %.not, label %11, label %9

9:                                                ; preds = %1
  %10 = load ptr, ptr %7, align 8, !tbaa !17
  br label %11

11:                                               ; preds = %9, %1
  %.0 = phi ptr [ %10, %9 ], [ %7, %1 ]
  ret ptr %.0
}